target datalayout = "e-m:e-p270:32:32-p271:32:32-p272:64:64-i64:64-i128:128-f80:128-n8:16:32:64-S128"
target triple = "x86_64-pc-linux-gnu"

%"class.std::__shared_count" = type { ptr }
%"struct.entt::type_info" = type { i32, i32, %"class.std::basic_string_view" }
%"class.std::basic_string_view" = type { i64, ptr }
%"struct.entt::internal::meta_type_node" = type { ptr, i32, i32, i64, ptr, ptr, ptr, ptr, ptr, %"struct.entt::internal::meta_template_node", %"struct.entt::internal::meta_dtor_node", %"struct.entt::internal::meta_custom_node", %"class.std::shared_ptr.14" }
%"struct.entt::internal::meta_template_node" = type { i64, ptr, ptr }
%"struct.entt::internal::meta_dtor_node" = type { ptr }
%"struct.entt::internal::meta_custom_node" = type { i32, %"class.std::shared_ptr" }
%"class.std::shared_ptr" = type { %"class.std::__shared_ptr" }
%"class.std::__shared_ptr" = type { ptr, %"class.std::__shared_count" }
%"class.std::shared_ptr.14" = type { %"class.std::__shared_ptr.15" }
%"class.std::__shared_ptr.15" = type { ptr, %"class.std::__shared_count" }
%"class.entt::meta_any" = type { %"class.entt::basic_any", ptr, %"struct.entt::internal::meta_type_node", ptr }
%"class.entt::basic_any" = type <{ %union.anon.39, ptr, ptr, i8, [7 x i8] }>
%union.anon.39 = type { ptr, [8 x i8] }

@_ZZN28MetaFactory_DataPointer_Test8TestBodyEvE5value = internal global i32 1, align 4
@_ZZN4entt7type_idIiEERKNS_9type_infoEvE8instance = linkonce_odr hidden global %"struct.entt::type_info" zeroinitializer, comdat, align 8
@_ZGVZN4entt7type_idIiEERKNS_9type_infoEvE8instance = linkonce_odr hidden global i64 0, comdat, align 8

; Function Attrs: mustprogress nounwind uwtable
define linkonce_odr hidden noundef ptr @_ZNK4entt9basic_anyILm16ELm8EE4dataEv(ptr noundef nonnull align 8 dereferenceable(33) %0) #5 comdat align 2 personality ptr @__gxx_personality_v0 {
  %2 = alloca ptr, align 8
  store ptr %0, ptr %2, align 8, !tbaa !670
  %3 = load ptr, ptr %2, align 8
  %4 = getelementptr inbounds nuw %"class.entt::basic_any", ptr %3, i32 0, i32 3
  %5 = load i8, ptr %4, align 8, !tbaa !673
  %6 = icmp eq i8 %5, 2
  br i1 %6, label %7, label %12

7:                                                ; preds = %1
  %8 = getelementptr inbounds nuw %"class.entt::basic_any", ptr %3, i32 0, i32 2
  %9 = load ptr, ptr %8, align 8, !tbaa !672
  %10 = invoke noundef ptr %9(i8 noundef zeroext 6, ptr noundef nonnull align 8 dereferenceable(33) %3, ptr noundef null)
          to label %11 unwind label %17

11:                                               ; preds = %7
  br label %15

12:                                               ; preds = %1
  %13 = getelementptr inbounds nuw %"class.entt::basic_any", ptr %3, i32 0, i32 0
  %14 = load ptr, ptr %13, align 8, !tbaa !315
  br label %15

15:                                               ; preds = %12, %11
  %16 = phi ptr [ %10, %11 ], [ %14, %12 ]
  ret ptr %16

17:                                               ; preds = %7
  %18 = landingpad { ptr, i32 }
          catch ptr null
  %19 = extractvalue { ptr, i32 } %18, 0
  call void @__clang_call_terminate(ptr %19) #26
  unreachable
}

; Function Attrs: inlinehint mustprogress nounwind uwtable
define linkonce_odr hidden noundef nonnull align 8 dereferenceable(56) ptr @_ZN4entt8internal12meta_context4fromERKNS_8meta_ctxE(ptr noundef nonnull align 8 dereferenceable(56) %0) #10 comdat align 2 {
  %2 = alloca ptr, align 8
  store ptr %0, ptr %2, align 8, !tbaa !35
  %3 = load ptr, ptr %2, align 8, !tbaa !35
  ret ptr %3
}

; Function Attrs: mustprogress nounwind uwtable
define linkonce_odr hidden noundef nonnull align 8 dereferenceable(24) ptr @_ZN4entt7type_idIiEERKNS_9type_infoEv() #5 comdat {
  %1 = load atomic i8, ptr @_ZGVZN4entt7type_idIiEERKNS_9type_infoEvE8instance acquire, align 8
  %2 = icmp eq i8 %1, 0
  br i1 %2, label %3, label %8, !prof !41

3:                                                ; preds = %0
  %4 = call i32 @__cxa_guard_acquire(ptr @_ZGVZN4entt7type_idIiEERKNS_9type_infoEvE8instance) #3
  %5 = icmp ne i32 %4, 0
  br i1 %5, label %6, label %8

6:                                                ; preds = %3
  call void @_ZN4entt9type_infoC2IiEESt15in_place_type_tIT_E(ptr noundef nonnull align 8 dereferenceable(24) @_ZZN4entt7type_idIiEERKNS_9type_infoEvE8instance) #3
  %7 = call ptr @llvm.invariant.start.p0(i64 24, ptr @_ZZN4entt7type_idIiEERKNS_9type_infoEvE8instance)
  call void @__cxa_guard_release(ptr @_ZGVZN4entt7type_idIiEERKNS_9type_infoEvE8instance) #3
  br label %8

8:                                                ; preds = %6, %3, %0
  ret ptr @_ZZN4entt7type_idIiEERKNS_9type_infoEvE8instance
}

; Function Attrs: mustprogress nounwind uwtable
define linkonce_odr hidden noundef ptr @_ZNK4entt8meta_any8try_castIiEEPKT_v(ptr noundef nonnull align 8 dereferenceable(192) %0) #5 comdat align 2 {
  %2 = alloca ptr, align 8
  %3 = alloca ptr, align 8
  store ptr %0, ptr %2, align 8, !tbaa !160
  %4 = load ptr, ptr %2, align 8
  call void @llvm.lifetime.start.p0(i64 8, ptr %3) #3
  %5 = call noundef nonnull align 8 dereferenceable(24) ptr @_ZN4entt7type_idIiEERKNS_9type_infoEv() #3
  store ptr %5, ptr %3, align 8, !tbaa !39
  %6 = getelementptr inbounds nuw %"class.entt::meta_any", ptr %4, i32 0, i32 1
  %7 = load ptr, ptr %6, align 8, !tbaa !162
  %8 = call noundef nonnull align 8 dereferenceable(56) ptr @_ZN4entt8internal12meta_context4fromERKNS_8meta_ctxE(ptr noundef nonnull align 8 dereferenceable(56) %7)
  %9 = getelementptr inbounds nuw %"class.entt::meta_any", ptr %4, i32 0, i32 2
  %10 = load ptr, ptr %3, align 8, !tbaa !39
  %11 = getelementptr inbounds nuw %"class.entt::meta_any", ptr %4, i32 0, i32 0
  %12 = call noundef ptr @_ZNK4entt9basic_anyILm16ELm8EE4dataEv(ptr noundef nonnull align 8 dereferenceable(33) %11) #3
  %13 = call noundef ptr @_ZN4entt8internal8try_castERKNS0_12meta_contextERKNS0_14meta_type_nodeERKNS_9type_infoEPKv(ptr noundef nonnull align 8 dereferenceable(56) %8, ptr noundef nonnull align 8 dereferenceable(136) %9, ptr noundef nonnull align 8 dereferenceable(24) %10, ptr noundef %12) #3
  call void @llvm.lifetime.end.p0(i64 8, ptr %3) #3
  ret ptr %13
}

; Function Attrs: mustprogress uwtable
define linkonce_odr hidden noundef ptr @_ZN4entt8meta_any8try_castIKiEEPT_v(ptr noundef nonnull align 8 dereferenceable(192) %0) #6 comdat align 2 {
  %2 = alloca ptr, align 8
  store ptr %0, ptr %2, align 8, !tbaa !160
  %3 = load ptr, ptr %2, align 8
  %4 = call noundef ptr @_ZNK4entt8meta_any8try_castIiEEPKT_v(ptr noundef nonnull align 8 dereferenceable(192) %3)
  ret ptr %4
}

; Function Attrs: mustprogress uwtable
define linkonce_odr hidden noundef i32 @_ZN4entt8meta_any4castIiEENSt12remove_constIT_E4typeEv(ptr noundef nonnull align 8 dereferenceable(192) %0) #6 comdat align 2 {
  %2 = alloca ptr, align 8
  %3 = alloca ptr, align 8
  store ptr %0, ptr %2, align 8, !tbaa !160
  %4 = load ptr, ptr %2, align 8
  call void @llvm.lifetime.start.p0(i64 8, ptr %3) #3
  %5 = call noundef ptr @_ZN4entt8meta_any8try_castIKiEEPT_v(ptr noundef nonnull align 8 dereferenceable(192) %4)
  store ptr %5, ptr %3, align 8, !tbaa !100
  %6 = load ptr, ptr %3, align 8, !tbaa !100
  %7 = load i32, ptr %6, align 4, !tbaa !17
  call void @llvm.lifetime.end.p0(i64 8, ptr %3) #3
  ret i32 %7
}

; Function Attrs: mustprogress uwtable
define internal noundef zeroext i1 @_ZN4entt11meta_setterIiTnDaXadL_ZZN28MetaFactory_DataPointer_Test8TestBodyEvE5valueEEEEbNS_11meta_handleENS_8meta_anyE(ptr noundef %0, ptr noundef %1) #6 {
  %3 = alloca i1, align 1
  %4 = alloca ptr, align 8
  %5 = alloca ptr, align 8
  store ptr %0, ptr %4, align 8, !tbaa !209
  store ptr %1, ptr %5, align 8, !tbaa !160
  %6 = call noundef zeroext i1 @_ZN4entt8meta_any10allow_castIiEEbv(ptr noundef nonnull align 8 dereferenceable(192) %1)
  br i1 %6, label %7, label %9

7:                                                ; preds = %2
  %8 = call noundef i32 @_ZN4entt8meta_any4castIiEENSt12remove_constIT_E4typeEv(ptr noundef nonnull align 8 dereferenceable(192) %1)
  store i32 %8, ptr @_ZZN28MetaFactory_DataPointer_Test8TestBodyEvE5value, align 4, !tbaa !17
  store i1 true, ptr %3, align 1
  br label %10

9:                                                ; preds = %2
  store i1 false, ptr %3, align 1
  br label %10

10:                                               ; preds = %9, %7
  %11 = load i1, ptr %3, align 1
  ret i1 %11
}