; Function Attrs: mustprogress uwtable
define internal noundef zeroext i1 @_ZN4entt11meta_setterIiTnDaXadL_ZZN28MetaFactory_DataPointer_Test8TestBodyEvE5valueEEEEbNS_11meta_handleENS_8meta_anyE(ptr readnone captures(none) %0, ptr noundef nonnull %1) #4 personality ptr @__gxx_personality_v0 {
  %3 = tail call noundef zeroext i1 @_ZN4entt8meta_any10allow_castIiEEbv(ptr noundef nonnull align 8 dereferenceable(192) %1)
  br i1 %3, label %4, label %29

4:                                                ; preds = %2
  %5 = load atomic i8, ptr @_ZGVZN4entt7type_idIiEERKNS_9type_infoEvE8instance acquire, align 8
  %6 = icmp eq i8 %5, 0
  br i1 %6, label %7, label %_ZN4entt7type_idIiEERKNS_9type_infoEv.exit.i.i.i, !prof !39

7:                                                ; preds = %4
  %8 = tail call i32 @__cxa_guard_acquire(ptr nonnull @_ZGVZN4entt7type_idIiEERKNS_9type_infoEvE8instance) #28
  %.not.i.i.i.i = icmp eq i32 %8, 0
  br i1 %.not.i.i.i.i, label %_ZN4entt7type_idIiEERKNS_9type_infoEv.exit.i.i.i, label %9

9:                                                ; preds = %7
  tail call void @_ZN4entt9type_infoC2IiEESt15in_place_type_tIT_E(ptr noundef nonnull align 8 dereferenceable(24) @_ZZN4entt7type_idIiEERKNS_9type_infoEvE8instance) #28
  %10 = tail call ptr @llvm.invariant.start.p0(i64 24, ptr nonnull @_ZZN4entt7type_idIiEERKNS_9type_infoEvE8instance)
  tail call void @__cxa_guard_release(ptr nonnull @_ZGVZN4entt7type_idIiEERKNS_9type_infoEvE8instance) #28
  br label %_ZN4entt7type_idIiEERKNS_9type_infoEv.exit.i.i.i

_ZN4entt7type_idIiEERKNS_9type_infoEv.exit.i.i.i: ; preds = %9, %7, %4
  %11 = getelementptr inbounds nuw i8, ptr %1, i64 40
  %12 = load ptr, ptr %11, align 8, !tbaa !326
  %13 = getelementptr inbounds nuw i8, ptr %1, i64 32
  %14 = load i8, ptr %13, align 8, !tbaa !325
  %15 = icmp eq i8 %14, 2
  br i1 %15, label %16, label %20

16:                                               ; preds = %_ZN4entt7type_idIiEERKNS_9type_infoEv.exit.i.i.i
  %17 = getelementptr inbounds nuw i8, ptr %1, i64 24
  %18 = load ptr, ptr %17, align 8, !tbaa !324
  %19 = invoke noundef ptr %18(i8 noundef zeroext 6, ptr noundef nonnull align 8 dereferenceable(192) %1, ptr noundef null)
          to label %_ZN4entt8meta_any4castIiEENSt12remove_constIT_E4typeEv.exit unwind label %22

20:                                               ; preds = %_ZN4entt7type_idIiEERKNS_9type_infoEv.exit.i.i.i
  %21 = load ptr, ptr %1, align 8, !tbaa !72
  br label %_ZN4entt8meta_any4castIiEENSt12remove_constIT_E4typeEv.exit

22:                                               ; preds = %16
  %23 = landingpad { ptr, i32 }
          catch ptr null
  %24 = extractvalue { ptr, i32 } %23, 0
  tail call void @__clang_call_terminate(ptr %24) #30
  unreachable

_ZN4entt8meta_any4castIiEENSt12remove_constIT_E4typeEv.exit: ; preds = %16, %20
  %25 = phi ptr [ %21, %20 ], [ %19, %16 ]
  %26 = getelementptr inbounds nuw i8, ptr %1, i64 48
  %27 = tail call noundef ptr @_ZN4entt8internal8try_castERKNS0_12meta_contextERKNS0_14meta_type_nodeERKNS_9type_infoEPKv(ptr noundef nonnull align 8 dereferenceable(56) %12, ptr noundef nonnull align 8 dereferenceable(136) %26, ptr noundef nonnull align 8 dereferenceable(24) @_ZZN4entt7type_idIiEERKNS_9type_infoEvE8instance, ptr noundef %25) #28
  %28 = load i32, ptr %27, align 4, !tbaa !73
  store i32 %28, ptr @_ZZN28MetaFactory_DataPointer_Test8TestBodyEvE5value, align 4, !tbaa !73
  br label %29

29:                                               ; preds = %2, %_ZN4entt8meta_any4castIiEENSt12remove_constIT_E4typeEv.exit
  ret i1 %3
}